; Function Attrs: mustprogress uwtable
define noundef i32 @_ZN5Ipopt13TripletHelper17GetNumberEntries_ERKNS_25ExpandedMultiVectorMatrixE(ptr noundef nonnull readonly align 8 captures(none) dereferenceable(104) %0) local_unnamed_addr #0 align 2 personality ptr @__gxx_personality_v0 {
  %2 = getelementptr inbounds nuw i8, ptr %0, i64 56
  %3 = load ptr, ptr %2, align 8, !tbaa !53
  %4 = getelementptr inbounds nuw i8, ptr %3, i64 12
  %5 = load i32, ptr %4, align 4, !tbaa !52
  %6 = getelementptr inbounds nuw i8, ptr %0, i64 72
  %7 = load ptr, ptr %6, align 8, !tbaa !120, !noalias !128
  %.not.i.i.i = icmp eq ptr %7, null
  br i1 %.not.i.i.i, label %_ZNK5Ipopt25ExpandedMultiVectorMatrix35ExpandedMultiVectorMatrixOwnerSpaceEv.exit, label %8

8:                                                ; preds = %1
  %9 = getelementptr inbounds nuw i8, ptr %7, i64 8
  %10 = load i32, ptr %9, align 8, !tbaa !42, !noalias !128
  %11 = add nsw i32 %10, 1
  store i32 %11, ptr %9, align 8, !tbaa !42, !noalias !128
  br label %_ZNK5Ipopt25ExpandedMultiVectorMatrix35ExpandedMultiVectorMatrixOwnerSpaceEv.exit

_ZNK5Ipopt25ExpandedMultiVectorMatrix35ExpandedMultiVectorMatrixOwnerSpaceEv.exit: ; preds = %1, %8
  %12 = getelementptr inbounds nuw i8, ptr %7, i64 24
  %13 = load ptr, ptr %12, align 8, !tbaa !131, !noalias !134
  %.not.i.i.i.i = icmp eq ptr %13, null
  br i1 %.not.i.i.i.i, label %_ZNK5Ipopt25ExpandedMultiVectorMatrix35ExpandedMultiVectorMatrixOwnerSpaceEv.exit._crit_edge, label %15

_ZNK5Ipopt25ExpandedMultiVectorMatrix35ExpandedMultiVectorMatrixOwnerSpaceEv.exit._crit_edge: ; preds = %_ZNK5Ipopt25ExpandedMultiVectorMatrix35ExpandedMultiVectorMatrixOwnerSpaceEv.exit
  %.pre = load i32, ptr inttoptr (i64 8 to ptr), align 8, !tbaa !42
  %14 = add nsw i32 %.pre, -1
  br label %18

15:                                               ; preds = %_ZNK5Ipopt25ExpandedMultiVectorMatrix35ExpandedMultiVectorMatrixOwnerSpaceEv.exit
  %16 = getelementptr inbounds nuw i8, ptr %13, i64 8
  %17 = load i32, ptr %16, align 8, !tbaa !42, !noalias !134
  br label %18

18:                                               ; preds = %_ZNK5Ipopt25ExpandedMultiVectorMatrix35ExpandedMultiVectorMatrixOwnerSpaceEv.exit._crit_edge, %15
  %19 = phi i32 [ %14, %_ZNK5Ipopt25ExpandedMultiVectorMatrix35ExpandedMultiVectorMatrixOwnerSpaceEv.exit._crit_edge ], [ %17, %15 ]
  %20 = getelementptr inbounds nuw i8, ptr %13, i64 12
  %21 = load i32, ptr %20, align 4, !tbaa !137
  %22 = getelementptr inbounds nuw i8, ptr %13, i64 8
  store i32 %19, ptr %22, align 8, !tbaa !42
  %23 = icmp eq i32 %19, 0
  br i1 %23, label %24, label %_ZN5Ipopt8SmartPtrIKNS_11VectorSpaceEED2Ev.exit

24:                                               ; preds = %18
  %25 = load ptr, ptr %13, align 8, !tbaa !43
  %26 = getelementptr inbounds nuw i8, ptr %25, i64 8
  %27 = load ptr, ptr %26, align 8
  tail call void %27(ptr noundef nonnull align 8 dereferenceable(16) %13) #17
  br label %_ZN5Ipopt8SmartPtrIKNS_11VectorSpaceEED2Ev.exit

_ZN5Ipopt8SmartPtrIKNS_11VectorSpaceEED2Ev.exit:  ; preds = %24, %18
  %28 = getelementptr inbounds nuw i8, ptr %7, i64 8
  %29 = load i32, ptr %28, align 8, !tbaa !42
  %30 = add nsw i32 %29, -1
  store i32 %30, ptr %28, align 8, !tbaa !42
  %31 = icmp eq i32 %30, 0
  br i1 %31, label %32, label %_ZN5Ipopt8SmartPtrIKNS_30ExpandedMultiVectorMatrixSpaceEED2Ev.exit

32:                                               ; preds = %_ZN5Ipopt8SmartPtrIKNS_11VectorSpaceEED2Ev.exit
  %33 = load ptr, ptr %7, align 8, !tbaa !43
  %34 = getelementptr inbounds nuw i8, ptr %33, i64 8
  %35 = load ptr, ptr %34, align 8
  tail call void %35(ptr noundef nonnull align 8 dereferenceable(40) %7) #17
  br label %_ZN5Ipopt8SmartPtrIKNS_30ExpandedMultiVectorMatrixSpaceEED2Ev.exit

_ZN5Ipopt8SmartPtrIKNS_30ExpandedMultiVectorMatrixSpaceEED2Ev.exit: ; preds = %_ZN5Ipopt8SmartPtrIKNS_11VectorSpaceEED2Ev.exit, %32
  %36 = mul nsw i32 %21, %5
  ret i32 %36
}